; Function Attrs: nounwind uwtable
define noundef ptr @l_minOfLe___rarg(ptr noundef %0, ptr noundef %1, ptr noundef %2) #0 {
  %4 = ptrtoint ptr %2 to i64
  %5 = and i64 %4, 1
  %.not = icmp eq i64 %5, 0
  br i1 %.not, label %6, label %lean_inc.exit12

6:                                                ; preds = %3
  %.val.i = load i32, ptr %2, align 4, !tbaa !4
  %7 = icmp sgt i32 %.val.i, 0
  br i1 %7, label %8, label %10, !prof !9

8:                                                ; preds = %6
  %9 = add nuw i32 %.val.i, 1
  store i32 %9, ptr %2, align 4, !tbaa !4
  br label %lean_inc.exit12

10:                                               ; preds = %6
  %.not.i19 = icmp eq i32 %.val.i, 0
  br i1 %.not.i19, label %lean_inc.exit12, label %11

11:                                               ; preds = %10
  tail call void @lean_inc_ref_cold(ptr noundef nonnull %2) #11
  br label %lean_inc.exit12

lean_inc.exit12:                                  ; preds = %11, %10, %8, %3
  %12 = ptrtoint ptr %1 to i64
  %13 = and i64 %12, 1
  %.not23 = icmp eq i64 %13, 0
  br i1 %.not23, label %14, label %lean_inc.exit

14:                                               ; preds = %lean_inc.exit12
  %.val.i20 = load i32, ptr %1, align 4, !tbaa !4
  %15 = icmp sgt i32 %.val.i20, 0
  br i1 %15, label %16, label %18, !prof !9

16:                                               ; preds = %14
  %17 = add nuw i32 %.val.i20, 1
  store i32 %17, ptr %1, align 4, !tbaa !4
  br label %lean_inc.exit

18:                                               ; preds = %14
  %.not.i21 = icmp eq i32 %.val.i20, 0
  br i1 %.not.i21, label %lean_inc.exit, label %19

19:                                               ; preds = %18
  tail call void @lean_inc_ref_cold(ptr noundef nonnull %1) #11
  br label %lean_inc.exit

lean_inc.exit:                                    ; preds = %19, %18, %16, %lean_inc.exit12
  %20 = tail call ptr @lean_apply_2(ptr noundef %0, ptr noundef %1, ptr noundef %2) #11
  %21 = ptrtoint ptr %20 to i64
  %22 = and i64 %21, 1
  %.not24 = icmp eq i64 %22, 0
  br i1 %.not24, label %23, label %lean_dec.exit14

23:                                               ; preds = %lean_inc.exit
  %24 = load i32, ptr %20, align 4, !tbaa !4
  %25 = icmp sgt i32 %24, 1
  br i1 %25, label %26, label %28, !prof !9

26:                                               ; preds = %23
  %27 = add nsw i32 %24, -1
  store i32 %27, ptr %20, align 4, !tbaa !4
  br label %lean_dec.exit14

28:                                               ; preds = %23
  %.not.i = icmp eq i32 %24, 0
  br i1 %.not.i, label %lean_dec.exit14, label %29

29:                                               ; preds = %28
  tail call void @lean_dec_ref_cold(ptr noundef nonnull %20) #11
  br label %lean_dec.exit14

lean_dec.exit14:                                  ; preds = %29, %28, %26, %lean_inc.exit
  %30 = and i64 %21, 510
  %31 = icmp eq i64 %30, 0
  br i1 %31, label %32, label %40

32:                                               ; preds = %lean_dec.exit14
  br i1 %.not23, label %33, label %lean_dec.exit13

33:                                               ; preds = %32
  %34 = load i32, ptr %1, align 4, !tbaa !4
  %35 = icmp sgt i32 %34, 1
  br i1 %35, label %36, label %38, !prof !9

36:                                               ; preds = %33
  %37 = add nsw i32 %34, -1
  store i32 %37, ptr %1, align 4, !tbaa !4
  br label %lean_dec.exit13

38:                                               ; preds = %33
  %.not.i15 = icmp eq i32 %34, 0
  br i1 %.not.i15, label %lean_dec.exit13, label %39

39:                                               ; preds = %38
  tail call void @lean_dec_ref_cold(ptr noundef nonnull %1) #11
  br label %lean_dec.exit13

40:                                               ; preds = %lean_dec.exit14
  br i1 %.not, label %41, label %lean_dec.exit13

41:                                               ; preds = %40
  %42 = load i32, ptr %2, align 4, !tbaa !4
  %43 = icmp sgt i32 %42, 1
  br i1 %43, label %44, label %46, !prof !9

44:                                               ; preds = %41
  %45 = add nsw i32 %42, -1
  store i32 %45, ptr %2, align 4, !tbaa !4
  br label %lean_dec.exit13

46:                                               ; preds = %41
  %.not.i17 = icmp eq i32 %42, 0
  br i1 %.not.i17, label %lean_dec.exit13, label %47

47:                                               ; preds = %46
  tail call void @lean_dec_ref_cold(ptr noundef nonnull %2) #11
  br label %lean_dec.exit13

lean_dec.exit13:                                  ; preds = %40, %44, %46, %47, %32, %36, %38, %39
  %.0 = phi ptr [ %2, %39 ], [ %2, %38 ], [ %2, %36 ], [ %2, %32 ], [ %1, %47 ], [ %1, %46 ], [ %1, %44 ], [ %1, %40 ]
  ret ptr %.0
}